; Function Attrs: nounwind uwtable
define void @duckdb_je_pa_shard_prefork4(ptr noundef %0, ptr noundef %1) local_unnamed_addr #0 {
  %3 = getelementptr inbounds nuw i8, ptr %1, i64 80
  tail call void @duckdb_je_ecache_prefork(ptr noundef %0, ptr noundef nonnull %3) #5
  %4 = getelementptr inbounds nuw i8, ptr %1, i64 19520
  tail call void @duckdb_je_ecache_prefork(ptr noundef %0, ptr noundef nonnull %4) #5
  %5 = getelementptr inbounds nuw i8, ptr %1, i64 38960
  tail call void @duckdb_je_ecache_prefork(ptr noundef %0, ptr noundef nonnull %5) #5
  %6 = getelementptr inbounds nuw i8, ptr %1, i64 17
  %7 = load i8, ptr %6, align 1, !tbaa !3, !range !49, !noundef !50
  %8 = trunc nuw i8 %7 to i1
  br i1 %8, label %9, label %11

9:                                                ; preds = %2
  %10 = getelementptr inbounds nuw i8, ptr %1, i64 62384
  tail call void @duckdb_je_hpa_shard_prefork4(ptr noundef %0, ptr noundef nonnull %10) #5
  br label %11

11:                                               ; preds = %9, %2
  ret void
}